{
  "main_library": {
    "compatibility_versions": [
      {
        "version": "0"
      }
    ],
    "current_versions": [
      {
        "version": "0"
      }
    ],
    "exported_symbols": [
      {
        "data": {
          "global": [
            "__ZTSN11Clipper2Lib24ReuseableDataContainer64E",
            "__ZTVN11Clipper2Lib24ReuseableDataContainer64E",
            "__ZTVN11Clipper2Lib11ClipperBaseE",
            "__ZTIN11Clipper2Lib24ReuseableDataContainer64E",
            "__ZTIN11Clipper2Lib11ClipperBaseE",
            "__ZTSN11Clipper2Lib11ClipperBaseE"
          ]
        },
        "text": {
          "global": [
            "__ZN11Clipper2Lib10MoveSplitsEPNS_6OutRecES1_",
            "__ZN11Clipper2Lib11ClipperBase19AddNewIntersectNodeERNS_6ActiveES2_x",
            "__ZN11Clipper2Lib15InsertRightEdgeERNS_6ActiveES1_",
            "__ZN11Clipper2Lib11ClipperBase9NewOutRecEv",
            "__ZN11Clipper2Lib13ClipperOffset13OffsetPolygonERNS0_5GroupERKNSt3__16vectorINS_5PointIxEENS3_9allocatorIS6_EEEE",
            "__ZN11Clipper2Lib11ClipperBase17FixSelfIntersectsEPNS_6OutRecE",
            "__ZN11Clipper2Lib13ClipperOffset7ExecuteEdRNS_10PolyPath64E",
            "__ZN11Clipper2Lib11ClipperBase18ResetHorzDirectionERKNS_6ActiveEPKNS_6VertexERxS7_",
            "__ZN11Clipper2Lib13GetMaximaPairERKNS_6ActiveE",
            "__ZN11Clipper2Lib11ClipperBase11CheckBoundsEPNS_6OutRecE",
            "__ZN11Clipper2Lib13ClipperOffset14OffsetOpenPathERNS0_5GroupERKNSt3__16vectorINS_5PointIxEENS3_9allocatorIS6_EEEE",
            "__ZN11Clipper2Lib4AreaEPNS_5OutPtE",
            "__ZN11Clipper2Lib11ClipperBase18BuildIntersectListEx",
            "__ZN4core8DocumentC2Ev",
            "_core_document_destroy",
            "__ZN11Clipper2Lib11ClipperBase8AddPathsERKNSt3__16vectorINS2_INS_5PointIxEENS1_9allocatorIS4_EEEENS5_IS7_EEEENS_8PathTypeEb",
            "__ZN11Clipper2Lib11ClipperBase9DoSplitOpEPNS_6OutRecEPNS_5OutPtE",
            "__ZN11Clipper2Lib13ClipperOffset7DoBevelERKNSt3__16vectorINS_5PointIxEENS1_9allocatorIS4_EEEEmm",
            "__ZN11Clipper2Lib11ClipperBase29DisposeVerticesAndLocalMinimaEv",
            "__ZN4core8DocumentC1Ev",
            "__ZN4core11signed_areaERKNSt3__16vectorINS_4Vec2ENS0_9allocatorIS2_EEEE",
            "__ZNK11Clipper2Lib11ClipperBase20IsContributingClosedERKNS_6ActiveE",
            "__ZN11Clipper2Lib11ClipperBase27SetWindCountForOpenPathEdgeERNS_6ActiveE",
            "__ZN11Clipper2Lib13ClipperOffset5GroupC1ERKNSt3__16vectorINS3_INS_5PointIxEENS2_9allocatorIS5_EEEENS6_IS8_EEEENS_8JoinTypeENS_7EndTypeE",
            "_core_get_feature_flags",
            "__ZN11Clipper2Lib13ClipperOffset12BuildNormalsERKNSt3__16vectorINS_5PointIxEENS1_9allocatorIS4_EEEE",
            "__ZN11Clipper2Lib11ClipperBase22ConvertHorzSegsToJoinsEv",
            "__ZN11Clipper2Lib11ClipperBaseD1Ev",
            "__ZN11Clipper2Lib11ClipperBaseD0Ev",
            "__ZN11Clipper2Lib11ClipperBase16AddReuseableDataERKNS_24ReuseableDataContainer64E",
            "__ZN11Clipper2Lib11ClipperBase24InsertLocalMinimaIntoAELEx",
            "__ZN11Clipper2Lib24ReuseableDataContainer64D1Ev",
            "__ZN11Clipper2Lib11ClipperBase17DisposeAllOutRecsEv",
            "__ZN11Clipper2Lib9Clipper6412BuildPaths64ERNSt3__16vectorINS2_INS_5PointIxEENS1_9allocatorIS4_EEEENS5_IS7_EEEEPS9_",
            "__ZN11Clipper2Lib13ClipperOffset5GroupC2ERKNSt3__16vectorINS3_INS_5PointIxEENS2_9allocatorIS5_EEEENS6_IS8_EEEENS_8JoinTypeENS_7EndTypeE",
            "_core_document_create",
            "__ZN11Clipper2Lib11ClipperBase14InsertLeftEdgeERNS_6ActiveE",
            "__ZN11Clipper2Lib11ClipperBase20ProcessIntersectListEv",
            "__ZN11Clipper2Lib24ReuseableDataContainer645ClearEv",
            "__ZN11Clipper2Lib9Clipper6411BuildTree64ERNS_10PolyPath64ERNSt3__16vectorINS4_INS_5PointIxEENS3_9allocatorIS6_EEEENS7_IS9_EEEE",
            "__ZN4core18ensure_orientationERNSt3__16vectorINS_4Vec2ENS0_9allocatorIS2_EEEEb",
            "__ZN11Clipper2Lib23GetLowestClosedPathInfoERKNSt3__16vectorINS1_INS_5PointIxEENS0_9allocatorIS3_EEEENS4_IS6_EEEERNS0_8optionalImEERb",
            "_core_offset_multi",
            "__ZN11Clipper2Lib11ClipperBase7AddPathERKNSt3__16vectorINS_5PointIxEENS1_9allocatorIS4_EEEENS_8PathTypeEb",
            "__ZN11Clipper2Lib8ClipperD11BuildPathsDERNSt3__16vectorINS2_INS_5PointIdEENS1_9allocatorIS4_EEEENS5_IS7_EEEEPS9_",
            "__ZN4core17triangulate_ringsERKNSt3__16vectorINS1_INS_4Vec2ENS0_9allocatorIS2_EEEENS3_IS5_EEEE",
            "_core_document_remove_entity",
            "__ZN11Clipper2Lib11ClipperBase20RecursiveCheckOwnersEPNS_6OutRecEPNS_8PolyPathE",
            "__ZN11Clipper2Lib11ClipperBase15JoinOutrecPathsERNS_6ActiveES2_",
            "__ZN4core22remove_near_duplicatesERNSt3__16vectorINS_4Vec2ENS0_9allocatorIS2_EEEEd",
            "__ZN11Clipper2Lib15IsValidAelOrderERKNS_6ActiveES2_",
            "__ZN11Clipper2Lib11ClipperBase5SplitERNS_6ActiveERKNS_5PointIxEE",
            "__ZN11Clipper2Lib13ClipperOffset8DoSquareERKNSt3__16vectorINS_5PointIxEENS1_9allocatorIS4_EEEEmm",
            "__ZN11Clipper2Lib11ClipperBaseD2Ev",
            "__ZN4core6offsetERKNSt3__16vectorINS_8PolylineENS0_9allocatorIS2_EEEEd",
            "__ZN11Clipper2Lib11ClipperBase15DoIntersectionsEx",
            "_core_document_add_polyline",
            "__ZN11Clipper2Lib11ClipperBase29SetWindCountForClosedPathEdgeERNS_6ActiveE",
            "__ZN11Clipper2Lib13ClipperOffset11OffsetPointERNS0_5GroupERKNSt3__16vectorINS_5PointIxEENS3_9allocatorIS6_EEEEmm",
            "__ZN11Clipper2Lib24ReuseableDataContainer649AddLocMinERNS_6VertexENS_8PathTypeEb",
            "__ZN11Clipper2Lib9AddLocMinERNSt3__16vectorINS0_10unique_ptrINS_11LocalMinimaENS0_14default_deleteIS3_EEEENS0_9allocatorIS6_EEEERNS_6VertexENS_8PathTypeEb",
            "__ZN4core8DocumentD1Ev",
            "__ZN11Clipper2Lib11ClipperBase12DoHorizontalERNS_6ActiveE",
            "__ZN11Clipper2Lib26FindEdgeWithMatchingLocMinEPNS_6ActiveE",
            "__ZN11Clipper2Lib11ClipperBase15CheckSplitOwnerEPNS_6OutRecEPNSt3__16vectorIS2_NS3_9allocatorIS2_EEEE",
            "_core_boolean_op_single",
            "__ZN11Clipper2Lib24ReuseableDataContainer648AddPathsERKNSt3__16vectorINS2_INS_5PointIxEENS1_9allocatorIS4_EEEENS5_IS7_EEEENS_8PathTypeEb",
            "__ZN11Clipper2Lib13ClipperOffset7DoRoundERKNSt3__16vectorINS_5PointIxEENS1_9allocatorIS4_EEEEmmd",
            "__ZN4core10boolean_opERKNSt3__16vectorINS_8PolylineENS0_9allocatorIS2_EEEES7_NS_6BoolOpE",
            "__ZN11Clipper2Lib13ClipperOffset13DoGroupOffsetERNS0_5GroupE",
            "__ZN11Clipper2Lib11ClipperBase15AddLocalMaxPolyERNS_6ActiveES2_RKNS_5PointIxEE",
            "__ZN11Clipper2Lib11BuildPath64EPNS_5OutPtEbbRNSt3__16vectorINS_5PointIxEENS2_9allocatorIS5_EEEE",
            "__ZN4core10close_ringERNSt3__16vectorINS_4Vec2ENS0_9allocatorIS2_EEEE",
            "__ZN11Clipper2Lib11ClipperBase15ExecuteInternalENS_8ClipTypeENS_8FillRuleEb",
            "__ZN11Clipper2Lib13ClipperOffset7AddPathERKNSt3__16vectorINS_5PointIxEENS1_9allocatorIS4_EEEENS_8JoinTypeENS_7EndTypeE",
            "__ZN11Clipper2Lib11SwapOutrecsERNS_6ActiveES1_",
            "__ZN11Clipper2Lib13ClipperOffset16OffsetOpenJoinedERNS0_5GroupERKNSt3__16vectorINS_5PointIxEENS3_9allocatorIS6_EEEE",
            "__ZN4core19triangulate_polygonERKNSt3__16vectorINS_4Vec2ENS0_9allocatorIS2_EEEE",
            "__ZN4core8DocumentD2Ev",
            "_core_offset_single",
            "__ZN11Clipper2Lib24ReuseableDataContainer64D0Ev",
            "__ZN11Clipper2Lib13ClipperOffset20CalcSolutionCapacityEv",
            "__ZN11Clipper2Lib13ReverseOutPtsEPNS_5OutPtE",
            "__ZN11Clipper2Lib10BuildPathDEPNS_5OutPtEbbRNSt3__16vectorINS_5PointIdEENS2_9allocatorIS5_EEEEd",
            "__ZN11Clipper2Lib13ClipperOffset23CheckReverseOrientationEv",
            "__ZN11Clipper2Lib17IntersectListSortERKNS_13IntersectNodeES2_",
            "__ZN11Clipper2Lib11ClipperBase8AddOutPtERKNS_6ActiveERKNS_5PointIxEE",
            "__ZN11Clipper2Lib11ClipperBase14IntersectEdgesERNS_6ActiveES2_RKNS_5PointIxEE",
            "__ZN11Clipper2Lib11ClipperBase7CleanUpEv",
            "__ZN11Clipper2Lib11ClipperBase11DeleteEdgesERPNS_6ActiveE",
            "__ZN11Clipper2Lib11ClipperBase14CleanCollinearEPNS_6OutRecE",
            "__ZN11Clipper2Lib8ClipperD10BuildTreeDERNS_9PolyPathDERNSt3__16vectorINS4_INS_5PointIdEENS3_9allocatorIS6_EEEENS7_IS9_EEEE",
            "__ZN11Clipper2Lib9AddPaths_ERKNSt3__16vectorINS1_INS_5PointIxEENS0_9allocatorIS3_EEEENS4_IS6_EEEENS_8PathTypeEbRNS1_IPNS_6VertexENS4_ISD_EEEERNS1_INS0_10unique_ptrINS_11LocalMinimaENS0_14default_deleteISI_EEEENS4_ISL_EEEE",
            "__ZN11Clipper2Lib24ReuseableDataContainer64D2Ev",
            "_core_boolean_op_multi",
            "__ZN11Clipper2Lib13ClipperOffset8AddPathsERKNSt3__16vectorINS2_INS_5PointIxEENS1_9allocatorIS4_EEEENS5_IS7_EEEENS_8JoinTypeENS_7EndTypeE",
            "_core_triangulate_polygon_rings",
            "__ZN11Clipper2Lib11ClipperBase8DoMaximaERNS_6ActiveE",
            "__ZN4core8Document12add_polylineERKNS_8PolylineERKNSt3__112basic_stringIcNS4_11char_traitsIcEENS4_9allocatorIcEEEE",
            "_core_triangulate_polygon",
            "__ZN11Clipper2Lib11ClipperBase16ProcessHorzJoinsEv",
            "__ZN11Clipper2Lib13ClipperOffset7DoMiterERKNSt3__16vectorINS_5PointIxEENS1_9allocatorIS4_EEEEmmd",
            "__ZN11Clipper2Lib13ClipperOffset7ExecuteEdRNSt3__16vectorINS2_INS_5PointIxEENS1_9allocatorIS4_EEEENS5_IS7_EEEE",
            "__ZN11Clipper2Lib13ClipperOffset7ExecuteENSt3__18functionIFdRKNS1_6vectorINS_5PointIxEENS1_9allocatorIS5_EEEERKNS3_INS4_IdEENS6_ISB_EEEEmmEEERNS3_IS8_NS6_IS8_EEEE",
            "__ZN11Clipper2Lib11ClipperBase15AddLocalMinPolyERNS_6ActiveES2_RKNS_5PointIxEEb",
            "__ZN11Clipper2Lib11ClipperBase5ResetEv",
            "__ZN11Clipper2Lib11ClipperBase15DoTopOfScanbeamEx",
            "__ZN4core16boolean_op_multiERKNSt3__16vectorINS1_INS_4Vec2ENS0_9allocatorIS2_EEEENS3_IS5_EEEES9_NS_6BoolOpEi",
            "__ZN11Clipper2Lib11ClipperBase5ClearEv",
            "__ZN4core12offset_multiERKNSt3__16vectorINS1_INS_4Vec2ENS0_9allocatorIS2_EEEENS3_IS5_EEEEdid",
            "__ZN4core8Document13remove_entityEy",
            "__ZN11Clipper2Lib11ClipperBase18SwapPositionsInAELERNS_6ActiveES2_",
            "__ZN11Clipper2Lib13ClipperOffset15ExecuteInternalEd",
            "_core_get_version"
          ]
        }
      }
    ],
    "flags": [
      {
        "attributes": [
          "not_app_extension_safe"
        ]
      }
    ],
    "install_names": [
      {
        "name": "@rpath/libcore_c.dylib"
      }
    ],
    "target_info": [
      {
        "min_deployment": "15.1",
        "target": "arm64-macos"
      }
    ]
  },
  "tapi_tbd_version": 5
}
